; Function Attrs: mustprogress uwtable
define internal fastcc noundef zeroext i1 @_ZN10open_spiel10battleship12_GLOBAL__N_122IsOverlappingPlacementERKSt6vectorINS0_13ShipPlacementESaIS3_EE(ptr nocapture noundef nonnull readonly align 8 dereferenceable(24) %0) unnamed_addr #3 {
.split:
  %1 = getelementptr inbounds nuw i8, ptr %0, i64 8
  %2 = load ptr, ptr %1, align 8
  %3 = load ptr, ptr %0, align 8
  %4 = ptrtoint ptr %2 to i64
  %5 = ptrtoint ptr %3 to i64
  %6 = sub i64 %4, %5
  %7 = icmp ugt i64 %6, 32
  br i1 %7, label %.preheader, label %.loopexit

.preheader:                                       ; preds = %.split, %29
  %indvars.iv38 = phi i64 [ %indvars.iv.next39, %29 ], [ 1, %.split ]
  br label %8

8:                                                ; preds = %.preheader, %_ZNK10open_spiel10battleship13ShipPlacement12OverlapsWithERKS1_.exit.thread
  %indvars.iv = phi i64 [ 0, %.preheader ], [ %indvars.iv.next, %_ZNK10open_spiel10battleship13ShipPlacement12OverlapsWithERKS1_.exit.thread ]
  %9 = load ptr, ptr %1, align 8
  %10 = load ptr, ptr %0, align 8
  %11 = ptrtoint ptr %9 to i64
  %12 = ptrtoint ptr %10 to i64
  %13 = sub i64 %11, %12
  %14 = ashr exact i64 %13, 5
  %.not.i.i = icmp ugt i64 %14, %indvars.iv38
  br i1 %.not.i.i, label %_ZNKSt6vectorIN10open_spiel10battleship13ShipPlacementESaIS2_EE2atEm.exit, label %15

15:                                               ; preds = %8
  tail call void (ptr, ...) @_ZSt24__throw_out_of_range_fmtPKcz(ptr noundef nonnull @.str.22, i64 noundef %indvars.iv38, i64 noundef %14) #11
  unreachable

_ZNKSt6vectorIN10open_spiel10battleship13ShipPlacementESaIS2_EE2atEm.exit: ; preds = %8
  %16 = getelementptr inbounds %"class.open_spiel::battleship::ShipPlacement", ptr %10, i64 %indvars.iv38
  %17 = getelementptr inbounds %"class.open_spiel::battleship::ShipPlacement", ptr %10, i64 %indvars.iv
  %18 = tail call i64 @_ZNK10open_spiel10battleship13ShipPlacement17BottomRightCornerEv(ptr noundef nonnull readonly align 8 dereferenceable(32) %17)
  %.sroa.012.0.extract.trunc.i = trunc i64 %18 to i32
  %19 = getelementptr inbounds nuw i8, ptr %16, i64 4
  %.sroa.0.0.copyload.i.i = load i64, ptr %19, align 4
  %.sroa.010.0.extract.trunc.i = trunc i64 %.sroa.0.0.copyload.i.i to i32
  %20 = icmp slt i32 %.sroa.012.0.extract.trunc.i, %.sroa.010.0.extract.trunc.i
  br i1 %20, label %_ZNK10open_spiel10battleship13ShipPlacement12OverlapsWithERKS1_.exit.thread, label %21

21:                                               ; preds = %_ZNKSt6vectorIN10open_spiel10battleship13ShipPlacementESaIS2_EE2atEm.exit
  %22 = getelementptr inbounds nuw i8, ptr %17, i64 4
  %.sroa.0.0.copyload.i19.i = load i64, ptr %22, align 4
  %.sroa.08.0.extract.trunc.i = trunc i64 %.sroa.0.0.copyload.i19.i to i32
  %23 = tail call i64 @_ZNK10open_spiel10battleship13ShipPlacement17BottomRightCornerEv(ptr noundef nonnull readonly align 8 dereferenceable(32) %16)
  %.sroa.07.0.extract.trunc.i = trunc i64 %23 to i32
  %24 = icmp sgt i32 %.sroa.08.0.extract.trunc.i, %.sroa.07.0.extract.trunc.i
  br i1 %24, label %_ZNK10open_spiel10battleship13ShipPlacement12OverlapsWithERKS1_.exit.thread, label %25

25:                                               ; preds = %21
  %26 = tail call i64 @_ZNK10open_spiel10battleship13ShipPlacement17BottomRightCornerEv(ptr noundef nonnull readonly align 8 dereferenceable(32) %17)
  %.sroa.16.0.extract.shift.i = lshr i64 %26, 32
  %.sroa.16.0.extract.trunc.i = trunc nuw i64 %.sroa.16.0.extract.shift.i to i32
  %.sroa.0.0.copyload.i20.i = load i64, ptr %19, align 4
  %.sroa.14.0.extract.shift.i = lshr i64 %.sroa.0.0.copyload.i20.i, 32
  %.sroa.14.0.extract.trunc.i = trunc nuw i64 %.sroa.14.0.extract.shift.i to i32
  %27 = icmp slt i32 %.sroa.16.0.extract.trunc.i, %.sroa.14.0.extract.trunc.i
  br i1 %27, label %_ZNK10open_spiel10battleship13ShipPlacement12OverlapsWithERKS1_.exit.thread, label %_ZNK10open_spiel10battleship13ShipPlacement12OverlapsWithERKS1_.exit

_ZNK10open_spiel10battleship13ShipPlacement12OverlapsWithERKS1_.exit: ; preds = %25
  %.sroa.0.0.copyload.i21.i = load i64, ptr %22, align 4
  %.sroa.12.0.extract.shift.i = lshr i64 %.sroa.0.0.copyload.i21.i, 32
  %.sroa.12.0.extract.trunc.i = trunc nuw i64 %.sroa.12.0.extract.shift.i to i32
  %28 = tail call i64 @_ZNK10open_spiel10battleship13ShipPlacement17BottomRightCornerEv(ptr noundef nonnull readonly align 8 dereferenceable(32) %16)
  %.sroa.1.0.extract.shift.i = lshr i64 %28, 32
  %.sroa.1.0.extract.trunc.i = trunc nuw i64 %.sroa.1.0.extract.shift.i to i32
  %.not = icmp sgt i32 %.sroa.12.0.extract.trunc.i, %.sroa.1.0.extract.trunc.i
  br i1 %.not, label %_ZNK10open_spiel10battleship13ShipPlacement12OverlapsWithERKS1_.exit.thread, label %.loopexit

_ZNK10open_spiel10battleship13ShipPlacement12OverlapsWithERKS1_.exit.thread: ; preds = %25, %21, %_ZNKSt6vectorIN10open_spiel10battleship13ShipPlacementESaIS2_EE2atEm.exit, %_ZNK10open_spiel10battleship13ShipPlacement12OverlapsWithERKS1_.exit
  %indvars.iv.next = add nuw nsw i64 %indvars.iv, 1
  %exitcond.not = icmp eq i64 %indvars.iv.next, %indvars.iv38
  br i1 %exitcond.not, label %29, label %8, !llvm.loop !20

29:                                               ; preds = %_ZNK10open_spiel10battleship13ShipPlacement12OverlapsWithERKS1_.exit.thread
  %indvars.iv.next39 = add nuw nsw i64 %indvars.iv38, 1
  %30 = load ptr, ptr %1, align 8
  %31 = load ptr, ptr %0, align 8
  %32 = ptrtoint ptr %30 to i64
  %33 = ptrtoint ptr %31 to i64
  %34 = sub i64 %32, %33
  %35 = ashr exact i64 %34, 5
  %36 = icmp ugt i64 %35, %indvars.iv.next39
  br i1 %36, label %.preheader, label %.loopexit, !llvm.loop !21

.loopexit:                                        ; preds = %29, %_ZNK10open_spiel10battleship13ShipPlacement12OverlapsWithERKS1_.exit, %.split
  %37 = phi i1 [ false, %.split ], [ true, %_ZNK10open_spiel10battleship13ShipPlacement12OverlapsWithERKS1_.exit ], [ false, %29 ]
  ret i1 %37
}